; Function Attrs: nofree norecurse nosync nounwind memory(write, argmem: readwrite, inaccessiblemem: none) uwtable
define void @lv_draw_buf_set_palette(ptr noundef readonly captures(address_is_null) %0, i8 noundef zeroext %1, i32 %2) local_unnamed_addr #5 {
  %.not = icmp eq ptr %0, null
  br i1 %.not, label %.preheader, label %4

.preheader:                                       ; preds = %3, %.preheader
  br label %.preheader

4:                                                ; preds = %3
  %5 = load i64, ptr %0, align 8
  %6 = trunc i64 %5 to i32
  %7 = lshr i32 %6, 8
  %8 = and i32 %7, 255
  %9 = add nsw i32 %8, -7
  %or.cond = icmp ult i32 %9, 4
  br i1 %or.cond, label %10, label %15

10:                                               ; preds = %4
  %11 = getelementptr inbounds nuw i8, ptr %0, i64 16
  %12 = load ptr, ptr %11, align 8, !tbaa !19
  %13 = zext i8 %1 to i64
  %14 = getelementptr inbounds nuw %struct.lv_color32_t, ptr %12, i64 %13
  store i32 %2, ptr %14, align 1
  br label %15

15:                                               ; preds = %4, %10
  ret void
}